target datalayout = "e-m:e-p270:32:32-p271:32:32-p272:64:64-i64:64-i128:128-f80:128-n8:16:32:64-S128"
target triple = "x86_64-pc-linux-gnu"

%struct.strbuf = type { i64, i64, ptr }

; Function Attrs: nounwind uwtable
define dso_local i32 @strbuf_cmp(ptr noundef %0, ptr noundef %1) #0 {
  %3 = alloca i32, align 4
  %4 = alloca ptr, align 8
  %5 = alloca ptr, align 8
  %6 = alloca i64, align 8
  %7 = alloca i32, align 4
  %8 = alloca i32, align 4
  store ptr %0, ptr %4, align 8, !tbaa !18
  store ptr %1, ptr %5, align 8, !tbaa !18
  call void @llvm.lifetime.start.p0(i64 8, ptr %6) #11
  %9 = load ptr, ptr %4, align 8, !tbaa !18
  %10 = getelementptr inbounds nuw %struct.strbuf, ptr %9, i32 0, i32 1
  %11 = load i64, ptr %10, align 8, !tbaa !22
  %12 = load ptr, ptr %5, align 8, !tbaa !18
  %13 = getelementptr inbounds nuw %struct.strbuf, ptr %12, i32 0, i32 1
  %14 = load i64, ptr %13, align 8, !tbaa !22
  %15 = icmp ult i64 %11, %14
  br i1 %15, label %16, label %20

16:                                               ; preds = %2
  %17 = load ptr, ptr %4, align 8, !tbaa !18
  %18 = getelementptr inbounds nuw %struct.strbuf, ptr %17, i32 0, i32 1
  %19 = load i64, ptr %18, align 8, !tbaa !22
  br label %24

20:                                               ; preds = %2
  %21 = load ptr, ptr %5, align 8, !tbaa !18
  %22 = getelementptr inbounds nuw %struct.strbuf, ptr %21, i32 0, i32 1
  %23 = load i64, ptr %22, align 8, !tbaa !22
  br label %24

24:                                               ; preds = %20, %16
  %25 = phi i64 [ %19, %16 ], [ %23, %20 ]
  store i64 %25, ptr %6, align 8, !tbaa !12
  call void @llvm.lifetime.start.p0(i64 4, ptr %7) #11
  %26 = load ptr, ptr %4, align 8, !tbaa !18
  %27 = getelementptr inbounds nuw %struct.strbuf, ptr %26, i32 0, i32 2
  %28 = load ptr, ptr %27, align 8, !tbaa !23
  %29 = load ptr, ptr %5, align 8, !tbaa !18
  %30 = getelementptr inbounds nuw %struct.strbuf, ptr %29, i32 0, i32 2
  %31 = load ptr, ptr %30, align 8, !tbaa !23
  %32 = load i64, ptr %6, align 8, !tbaa !12
  %33 = call i32 @memcmp(ptr noundef %28, ptr noundef %31, i64 noundef %32) #13
  store i32 %33, ptr %7, align 4, !tbaa !10
  %34 = load i32, ptr %7, align 4, !tbaa !10
  %35 = icmp ne i32 %34, 0
  br i1 %35, label %36, label %38

36:                                               ; preds = %24
  %37 = load i32, ptr %7, align 4, !tbaa !10
  store i32 %37, ptr %3, align 4
  store i32 1, ptr %8, align 4
  br label %58

38:                                               ; preds = %24
  %39 = load ptr, ptr %4, align 8, !tbaa !18
  %40 = getelementptr inbounds nuw %struct.strbuf, ptr %39, i32 0, i32 1
  %41 = load i64, ptr %40, align 8, !tbaa !22
  %42 = load ptr, ptr %5, align 8, !tbaa !18
  %43 = getelementptr inbounds nuw %struct.strbuf, ptr %42, i32 0, i32 1
  %44 = load i64, ptr %43, align 8, !tbaa !22
  %45 = icmp ult i64 %41, %44
  br i1 %45, label %46, label %47

46:                                               ; preds = %38
  br label %56

47:                                               ; preds = %38
  %48 = load ptr, ptr %4, align 8, !tbaa !18
  %49 = getelementptr inbounds nuw %struct.strbuf, ptr %48, i32 0, i32 1
  %50 = load i64, ptr %49, align 8, !tbaa !22
  %51 = load ptr, ptr %5, align 8, !tbaa !18
  %52 = getelementptr inbounds nuw %struct.strbuf, ptr %51, i32 0, i32 1
  %53 = load i64, ptr %52, align 8, !tbaa !22
  %54 = icmp ne i64 %50, %53
  %55 = zext i1 %54 to i32
  br label %56

56:                                               ; preds = %47, %46
  %57 = phi i32 [ -1, %46 ], [ %55, %47 ]
  store i32 %57, ptr %3, align 4
  store i32 1, ptr %8, align 4
  br label %58

58:                                               ; preds = %56, %36
  call void @llvm.lifetime.end.p0(i64 4, ptr %7) #11
  call void @llvm.lifetime.end.p0(i64 8, ptr %6) #11
  %59 = load i32, ptr %3, align 4
  ret i32 %59
}