; Function Attrs: mustprogress nofree nounwind willreturn memory(read, inaccessiblemem: none) uwtable
define dso_local i32 @strbuf_cmp(ptr noundef readonly captures(none) %0, ptr noundef readonly captures(none) %1) local_unnamed_addr #12 {
  %3 = getelementptr inbounds nuw i8, ptr %0, i64 8
  %4 = load i64, ptr %3, align 8, !tbaa !16
  %5 = getelementptr inbounds nuw i8, ptr %1, i64 8
  %6 = load i64, ptr %5, align 8, !tbaa !16
  %. = tail call i64 @llvm.umin.i64(i64 %4, i64 %6)
  %7 = getelementptr inbounds nuw i8, ptr %0, i64 16
  %8 = load ptr, ptr %7, align 8, !tbaa !12
  %9 = getelementptr inbounds nuw i8, ptr %1, i64 16
  %10 = load ptr, ptr %9, align 8, !tbaa !12
  %11 = tail call i32 @memcmp(ptr noundef %8, ptr noundef %10, i64 noundef %.) #26
  %.not = icmp eq i32 %11, 0
  %12 = tail call i32 @llvm.ucmp.i32.i64(i64 %4, i64 %6)
  %.0 = select i1 %.not, i32 %12, i32 %11
  ret i32 %.0
}